target datalayout = "e-m:e-p270:32:32-p271:32:32-p272:64:64-i64:64-i128:128-f80:128-n8:16:32:64-S128"
target triple = "x86_64-pc-linux-gnu"

%struct.hpa_shard_opts_s = type { i64, i64, i32, i8, i64, i64, i8 }

@duckdb_je_opt_hpa_opts = external global %struct.hpa_shard_opts_s, align 8

; Function Attrs: nounwind uwtable
define internal i32 @opt_hpa_strict_min_purge_interval_ctl(ptr noundef %0, ptr noundef %1, i64 noundef %2, ptr noundef %3, ptr noundef %4, ptr noundef %5, i64 noundef %6) #0 {
  %8 = alloca i32, align 4
  %9 = alloca ptr, align 8
  %10 = alloca ptr, align 8
  %11 = alloca i64, align 8
  %12 = alloca ptr, align 8
  %13 = alloca ptr, align 8
  %14 = alloca ptr, align 8
  %15 = alloca i64, align 8
  %16 = alloca i32, align 4
  %17 = alloca i8, align 1
  %18 = alloca i64, align 8
  %19 = alloca i32, align 4
  store ptr %0, ptr %9, align 8, !tbaa !3
  store ptr %1, ptr %10, align 8, !tbaa !11
  store i64 %2, ptr %11, align 8, !tbaa !13
  store ptr %3, ptr %12, align 8, !tbaa !10
  store ptr %4, ptr %13, align 8, !tbaa !11
  store ptr %5, ptr %14, align 8, !tbaa !10
  store i64 %6, ptr %15, align 8, !tbaa !13
  call void @llvm.lifetime.start.p0(i64 4, ptr %16) #13
  call void @llvm.lifetime.start.p0(i64 1, ptr %17) #13
  br label %20

20:                                               ; preds = %7
  %21 = load ptr, ptr %14, align 8, !tbaa !10
  %22 = icmp ne ptr %21, null
  br i1 %22, label %26, label %23

23:                                               ; preds = %20
  %24 = load i64, ptr %15, align 8, !tbaa !13
  %25 = icmp ne i64 %24, 0
  br i1 %25, label %26, label %27

26:                                               ; preds = %23, %20
  store i32 1, ptr %16, align 4, !tbaa !19
  br label %66

27:                                               ; preds = %23
  br label %28

28:                                               ; preds = %27
  br label %29

29:                                               ; preds = %28
  %30 = load i8, ptr getelementptr inbounds nuw (%struct.hpa_shard_opts_s, ptr @duckdb_je_opt_hpa_opts, i32 0, i32 6), align 8, !tbaa !221, !range !17, !noundef !18
  %31 = trunc i8 %30 to i1
  %32 = zext i1 %31 to i8
  store i8 %32, ptr %17, align 1, !tbaa !15
  br label %33

33:                                               ; preds = %29
  %34 = load ptr, ptr %12, align 8, !tbaa !10
  %35 = icmp ne ptr %34, null
  br i1 %35, label %36, label %63

36:                                               ; preds = %33
  %37 = load ptr, ptr %13, align 8, !tbaa !11
  %38 = icmp ne ptr %37, null
  br i1 %38, label %39, label %63

39:                                               ; preds = %36
  %40 = load ptr, ptr %13, align 8, !tbaa !11
  %41 = load i64, ptr %40, align 8, !tbaa !13
  %42 = icmp ne i64 %41, 1
  br i1 %42, label %43, label %58

43:                                               ; preds = %39
  call void @llvm.lifetime.start.p0(i64 8, ptr %18) #13
  %44 = load ptr, ptr %13, align 8, !tbaa !11
  %45 = load i64, ptr %44, align 8, !tbaa !13
  %46 = icmp ule i64 1, %45
  br i1 %46, label %47, label %48

47:                                               ; preds = %43
  br label %51

48:                                               ; preds = %43
  %49 = load ptr, ptr %13, align 8, !tbaa !11
  %50 = load i64, ptr %49, align 8, !tbaa !13
  br label %51

51:                                               ; preds = %48, %47
  %52 = phi i64 [ 1, %47 ], [ %50, %48 ]
  store i64 %52, ptr %18, align 8, !tbaa !13
  %53 = load ptr, ptr %12, align 8, !tbaa !10
  %54 = load i64, ptr %18, align 8, !tbaa !13
  call void @llvm.memcpy.p0.p0.i64(ptr align 1 %53, ptr align 1 %17, i64 %54, i1 false)
  %55 = load i64, ptr %18, align 8, !tbaa !13
  %56 = load ptr, ptr %13, align 8, !tbaa !11
  store i64 %55, ptr %56, align 8, !tbaa !13
  store i32 22, ptr %16, align 4, !tbaa !19
  store i32 4, ptr %19, align 4
  call void @llvm.lifetime.end.p0(i64 8, ptr %18) #13
  %57 = load i32, ptr %19, align 4
  switch i32 %57, label %68 [
    i32 4, label %66
  ]

58:                                               ; preds = %39
  %59 = load i8, ptr %17, align 1, !tbaa !15, !range !17, !noundef !18
  %60 = trunc i8 %59 to i1
  %61 = load ptr, ptr %12, align 8, !tbaa !10
  %62 = zext i1 %60 to i8
  store i8 %62, ptr %61, align 1, !tbaa !15
  br label %63

63:                                               ; preds = %58, %36, %33
  br label %64

64:                                               ; preds = %63
  br label %65

65:                                               ; preds = %64
  store i32 0, ptr %16, align 4, !tbaa !19
  br label %66

66:                                               ; preds = %65, %51, %26
  %67 = load i32, ptr %16, align 4, !tbaa !19
  store i32 %67, ptr %8, align 4
  store i32 1, ptr %19, align 4
  br label %68

68:                                               ; preds = %66, %51
  call void @llvm.lifetime.end.p0(i64 1, ptr %17) #13
  call void @llvm.lifetime.end.p0(i64 4, ptr %16) #13
  %69 = load i32, ptr %8, align 4
  ret i32 %69
}